; Function Attrs: mustprogress nofree norecurse nosync nounwind willreturn memory(readwrite, inaccessiblemem: none) uwtable
define void @_ZN2cv8Subdiv2D6spliceEii(ptr noundef nonnull readonly align 8 captures(none) dereferenceable(80) %0, i32 noundef %1, i32 noundef %2) local_unnamed_addr #11 align 2 {
  %4 = getelementptr inbounds nuw i8, ptr %0, i64 24
  %5 = ashr i32 %1, 2
  %6 = sext i32 %5 to i64
  %7 = load ptr, ptr %4, align 8, !tbaa !3
  %8 = getelementptr inbounds nuw %"struct.cv::Subdiv2D::QuadEdge", ptr %7, i64 %6
  %9 = and i32 %1, 3
  %10 = zext nneg i32 %9 to i64
  %11 = getelementptr inbounds nuw [4 x i32], ptr %8, i64 0, i64 %10
  %12 = ashr i32 %2, 2
  %13 = sext i32 %12 to i64
  %14 = getelementptr inbounds nuw %"struct.cv::Subdiv2D::QuadEdge", ptr %7, i64 %13
  %15 = and i32 %2, 3
  %16 = zext nneg i32 %15 to i64
  %17 = getelementptr inbounds nuw [4 x i32], ptr %14, i64 0, i64 %16
  %18 = load i32, ptr %11, align 4, !tbaa !9
  %19 = add nsw i32 %18, 1
  %20 = and i32 %19, 3
  %21 = load i32, ptr %17, align 4, !tbaa !9
  %22 = add nsw i32 %21, 1
  %23 = and i32 %22, 3
  %24 = ashr i32 %18, 2
  %25 = sext i32 %24 to i64
  %26 = getelementptr inbounds nuw %"struct.cv::Subdiv2D::QuadEdge", ptr %7, i64 %25
  %27 = zext nneg i32 %20 to i64
  %28 = getelementptr inbounds nuw [4 x i32], ptr %26, i64 0, i64 %27
  %29 = ashr i32 %21, 2
  %30 = sext i32 %29 to i64
  %31 = getelementptr inbounds nuw %"struct.cv::Subdiv2D::QuadEdge", ptr %7, i64 %30
  %32 = zext nneg i32 %23 to i64
  %33 = getelementptr inbounds nuw [4 x i32], ptr %31, i64 0, i64 %32
  store i32 %21, ptr %11, align 4, !tbaa !9
  store i32 %18, ptr %17, align 4, !tbaa !9
  %34 = load i32, ptr %28, align 4, !tbaa !9
  %35 = load i32, ptr %33, align 4, !tbaa !9
  store i32 %35, ptr %28, align 4, !tbaa !9
  store i32 %34, ptr %33, align 4, !tbaa !9
  ret void
}